(dp0
Vsg_bundle_data
p1
(dp2
Vtype
p3
VCustomNonProjectEntity07
p4
sVid
p5
I81
sVsg_system_name
p6
Vtk-config-default2
p7
sVsg_status_list
p8
Vhidden
p9
sVsg_deprecation_message
p10
NssVsg_version_data
p11
(dp12
Vtype
p13
VCustomNonProjectEntity08
p14
sVid
p15
I4008
sVcode
p16
Vv1.7.1
p17
sVsg_status_list
p18
Vprod
p19
sVdescription
p20
V[No wiki release notes found]
p21
sVtags
p22
(lp23
sVsg_detailed_release_notes
p24
(dp25
Vurl
p26
Vhttps://community.shotgridsoftware.com/t/flow-production-tracking-integration-v1-7-release-notes/19010
p27
sVname
p28
Vv1.7.1
p29
sVcontent_type
p30
NsVlink_type
p31
Vweb
p32
sg13
VAttachment
p33
sg15
I33402
ssVsg_documentation
p34
NsVsg_payload
p35
(dp36
g26
Vhttps://s3-proxy.shotgunstudio.com/d18c13bf0e59a9a82f18be518a1b6b508bcbd774/44aa284a6d96d0766582f5456f3c5080a27422b2/tk-config-default2_v1.7.1.zip?response-content-disposition=filename%3D%22tk-config-default2_v1.7.1.zip%22&x-amz-meta-user-id=42&x-amz-meta-user-type=ApiUser&X-Amz-Algorithm=AWS4-HMAC-SHA256&X-Amz-Credential=ASIAYJG6Z4JIXPFOI7NW%2F20240906%2Fus-west-2%2Fs3%2Faws4_request&X-Amz-Date=20240906T085441Z&X-Amz-SignedHeaders=host&X-Amz-Expires=900&X-Amz-Security-Token=IQoJb3JpZ2luX2VjEOn%2F%2F%2F%2F%2F%2F%2F%2F%2F%2FwEaCXVzLWVhc3QtMSJHMEUCIBA5IGw5urj9Cu30W5rXCq7g8TcLGnXmj8myh4QLNsurAiEAped%2FDjA3pu6%2Bq71Io8X6zFLB8WhI7%2BkCWoL%2Bq1v%2FNIIqmAIIERAAGgw1Njk1NTA0MzA4MDEiDLW0zHMcJe%2FQp3lm1Cr1AXQ%2FuwYKutat15OjtbB5MSlGyJSSsnLdHtY6GzNKQFe5bi7xfTqC4etI9%2Ft8pVNLwfw%2F8%2FR2o5l3BJAPC5tmoBiboqPtHE%2FRSZJx8H05TAJ2Pql7dlEvlniQ9kISfTH%2BGJWRMaEZK2MLnOq7aDZyH1GiqX4nxuC21Ye0u6dphAJMSSV72hrctxdFXFEwToKsYXd0pbYbMZlnga6OYizr4LrdGx1PqBXK%2FFR%2FU5NSvhzNxJFhlnamD4ttysYbTxm389%2BCG3T%2Behs7epiwwxyip%2BXffCXUcGQNvcMD6tc%2BRyOT7XoUnkDlEc3IW%2F6Ln0Zu82WR0hGgMM3x6rYGOp0B1F1vepJpxeNuiScC7MZt6x%2BxXis8Wh6Bn5%2BxbtCtJzN9trR9aMGcXln0ce%2F53GflCaPxTUqLO7SJlFJGyGYBfu27T0VOSnHHl63xmuderF0aH%2FIr5XcNYz%2Bz9qyjv8%2BFGTRlQn8ti0q3%2BoA500ipyinP%2FsBNtlwrz%2B2Rd0uQuvSYwpAKsPqTjxyhEMaN7rNLo7pNB%2BQgcJaVs712Mg%3D%3D&X-Amz-Signature=682cbe97289635c06571789813023aa6ee3208f127ed7bd6e198494f069e6dcd
p37
sg28
Vtk-config-default2_v1.7.1.zip
p38
sg30
Vapplication/zip
p39
sg31
Vupload
p40
sg13
VAttachment
p41
sg15
I33401
sss.